target datalayout = "e-m:e-p270:32:32-p271:32:32-p272:64:64-i64:64-i128:128-f80:128-n8:16:32:64-S128"
target triple = "x86_64-pc-linux-gnu"

%"class.rocksdb::Slice" = type { ptr, i64 }
%"class.rocksdb::BlockBuilder" = type { i32, i8, i8, i64, i8, %"class.std::__cxx11::basic_string", %"class.std::vector", i64, i32, i8, %"class.std::__cxx11::basic_string", %"class.rocksdb::DataBlockHashIndexBuilder" }
%"class.std::vector" = type { %"struct.std::_Vector_base" }
%"struct.std::_Vector_base" = type { %"struct.std::_Vector_base<unsigned int, std::allocator<unsigned int>>::_Vector_impl" }
%"struct.std::_Vector_base<unsigned int, std::allocator<unsigned int>>::_Vector_impl" = type { %"struct.std::_Vector_base<unsigned int, std::allocator<unsigned int>>::_Vector_impl_data" }
%"struct.std::_Vector_base<unsigned int, std::allocator<unsigned int>>::_Vector_impl_data" = type { ptr, ptr, ptr }
%"class.std::__cxx11::basic_string" = type { %"struct.std::__cxx11::basic_string<char>::_Alloc_hider", i64, %union.anon }
%"struct.std::__cxx11::basic_string<char>::_Alloc_hider" = type { ptr }
%union.anon = type { i64, [8 x i8] }
%"class.rocksdb::DataBlockHashIndexBuilder" = type { double, double, i8, %"class.std::vector.3" }
%"class.std::vector.3" = type { %"struct.std::_Vector_base.4" }
%"struct.std::_Vector_base.4" = type { %"struct.std::_Vector_base<std::pair<unsigned int, unsigned char>, std::allocator<std::pair<unsigned int, unsigned char>>>::_Vector_impl" }
%"struct.std::_Vector_base<std::pair<unsigned int, unsigned char>, std::allocator<std::pair<unsigned int, unsigned char>>>::_Vector_impl" = type { %"struct.std::_Vector_base<std::pair<unsigned int, unsigned char>, std::allocator<std::pair<unsigned int, unsigned char>>>::_Vector_impl_data" }
%"struct.std::_Vector_base<std::pair<unsigned int, unsigned char>, std::allocator<std::pair<unsigned int, unsigned char>>>::_Vector_impl_data" = type { ptr, ptr, ptr }

; Function Attrs: inlinehint mustprogress nounwind uwtable
define linkonce_odr noundef i64 @_ZNK7rocksdb25DataBlockHashIndexBuilder12EstimateSizeEv(ptr noundef nonnull align 8 dereferenceable(48) %0) #1 comdat align 2 {
  %2 = alloca ptr, align 8
  %3 = alloca i16, align 2
  store ptr %0, ptr %2, align 8, !tbaa !58
  %4 = load ptr, ptr %2, align 8
  call void @llvm.lifetime.start.p0(i64 2, ptr %3) #15
  %5 = getelementptr inbounds nuw %"class.rocksdb::DataBlockHashIndexBuilder", ptr %4, i32 0, i32 1
  %6 = load double, ptr %5, align 8, !tbaa !61
  %7 = fptoui double %6 to i16
  store i16 %7, ptr %3, align 2, !tbaa !87
  %8 = load i16, ptr %3, align 2, !tbaa !87
  %9 = zext i16 %8 to i32
  %10 = or i32 %9, 1
  %11 = trunc i32 %10 to i16
  store i16 %11, ptr %3, align 2, !tbaa !87
  %12 = load i16, ptr %3, align 2, !tbaa !87
  %13 = zext i16 %12 to i64
  %14 = mul i64 %13, 1
  %15 = add i64 2, %14
  call void @llvm.lifetime.end.p0(i64 2, ptr %3) #15
  ret i64 %15
}

; Function Attrs: inlinehint mustprogress nounwind uwtable
define linkonce_odr noundef zeroext i1 @_ZNK7rocksdb25DataBlockHashIndexBuilder5ValidEv(ptr noundef nonnull align 8 dereferenceable(48) %0) #1 comdat align 2 {
  %2 = alloca ptr, align 8
  store ptr %0, ptr %2, align 8, !tbaa !58
  %3 = load ptr, ptr %2, align 8
  %4 = getelementptr inbounds nuw %"class.rocksdb::DataBlockHashIndexBuilder", ptr %3, i32 0, i32 2
  %5 = load i8, ptr %4, align 8, !tbaa !62, !range !42, !noundef !43
  %6 = trunc i8 %5 to i1
  br i1 %6, label %7, label %11

7:                                                ; preds = %1
  %8 = getelementptr inbounds nuw %"class.rocksdb::DataBlockHashIndexBuilder", ptr %3, i32 0, i32 0
  %9 = load double, ptr %8, align 8, !tbaa !60
  %10 = fcmp ogt double %9, 0.000000e+00
  br label %11

11:                                               ; preds = %7, %1
  %12 = phi i1 [ false, %1 ], [ %10, %7 ]
  ret i1 %12
}

; Function Attrs: inlinehint mustprogress nounwind uwtable
define linkonce_odr noundef i32 @_ZN7rocksdb12VarintLengthEm(i64 noundef %0) #1 comdat {
  %2 = alloca i64, align 8
  %3 = alloca i32, align 4
  store i64 %0, ptr %2, align 8, !tbaa !4
  call void @llvm.lifetime.start.p0(i64 4, ptr %3) #15
  store i32 1, ptr %3, align 4, !tbaa !19
  br label %4

4:                                                ; preds = %7, %1
  %5 = load i64, ptr %2, align 8, !tbaa !4
  %6 = icmp uge i64 %5, 128
  br i1 %6, label %7, label %12

7:                                                ; preds = %4
  %8 = load i64, ptr %2, align 8, !tbaa !4
  %9 = lshr i64 %8, 7
  store i64 %9, ptr %2, align 8, !tbaa !4
  %10 = load i32, ptr %3, align 4, !tbaa !19
  %11 = add nsw i32 %10, 1
  store i32 %11, ptr %3, align 4, !tbaa !19
  br label %4, !llvm.loop !65

12:                                               ; preds = %4
  %13 = load i32, ptr %3, align 4, !tbaa !19
  call void @llvm.lifetime.end.p0(i64 4, ptr %3) #15
  ret i32 %13
}

; Function Attrs: mustprogress nounwind uwtable
define linkonce_odr noundef i64 @_ZNK7rocksdb5Slice4sizeEv(ptr noundef nonnull align 8 dereferenceable(16) %0) #4 comdat align 2 {
  %2 = alloca ptr, align 8
  store ptr %0, ptr %2, align 8, !tbaa !10
  %3 = load ptr, ptr %2, align 8
  %4 = getelementptr inbounds nuw %"class.rocksdb::Slice", ptr %3, i32 0, i32 1
  %5 = load i64, ptr %4, align 8, !tbaa !16
  ret i64 %5
}

; Function Attrs: inlinehint mustprogress uwtable
define linkonce_odr noundef i64 @_ZNK7rocksdb12BlockBuilder19CurrentSizeEstimateEv(ptr noundef nonnull align 8 dereferenceable(176) %0) #3 comdat align 2 {
  %2 = alloca ptr, align 8
  store ptr %0, ptr %2, align 8, !tbaa !17
  %3 = load ptr, ptr %2, align 8
  %4 = getelementptr inbounds nuw %"class.rocksdb::BlockBuilder", ptr %3, i32 0, i32 7
  %5 = load i64, ptr %4, align 8, !tbaa !50
  %6 = getelementptr inbounds nuw %"class.rocksdb::BlockBuilder", ptr %3, i32 0, i32 11
  %7 = call noundef zeroext i1 @_ZNK7rocksdb25DataBlockHashIndexBuilder5ValidEv(ptr noundef nonnull align 8 dereferenceable(48) %6)
  br i1 %7, label %8, label %11

8:                                                ; preds = %1
  %9 = getelementptr inbounds nuw %"class.rocksdb::BlockBuilder", ptr %3, i32 0, i32 11
  %10 = call noundef i64 @_ZNK7rocksdb25DataBlockHashIndexBuilder12EstimateSizeEv(ptr noundef nonnull align 8 dereferenceable(48) %9)
  br label %12

11:                                               ; preds = %1
  br label %12

12:                                               ; preds = %11, %8
  %13 = phi i64 [ %10, %8 ], [ 0, %11 ]
  %14 = add i64 %5, %13
  ret i64 %14
}

; Function Attrs: mustprogress uwtable
define noundef i64 @_ZNK7rocksdb12BlockBuilder19EstimateSizeAfterKVERKNS_5SliceES3_(ptr noundef nonnull align 8 dereferenceable(176) %0, ptr noundef nonnull align 8 dereferenceable(16) %1, ptr noundef nonnull align 8 dereferenceable(16) %2) #5 align 2 {
  %4 = alloca ptr, align 8
  %5 = alloca ptr, align 8
  %6 = alloca ptr, align 8
  %7 = alloca i64, align 8
  store ptr %0, ptr %4, align 8, !tbaa !17
  store ptr %1, ptr %5, align 8, !tbaa !10
  store ptr %2, ptr %6, align 8, !tbaa !10
  %8 = load ptr, ptr %4, align 8
  call void @llvm.lifetime.start.p0(i64 8, ptr %7) #15
  %9 = call noundef i64 @_ZNK7rocksdb12BlockBuilder19CurrentSizeEstimateEv(ptr noundef nonnull align 8 dereferenceable(176) %8)
  store i64 %9, ptr %7, align 8, !tbaa !4
  %10 = load ptr, ptr %5, align 8, !tbaa !10
  %11 = call noundef i64 @_ZNK7rocksdb5Slice4sizeEv(ptr noundef nonnull align 8 dereferenceable(16) %10)
  %12 = load i64, ptr %7, align 8, !tbaa !4
  %13 = add i64 %12, %11
  store i64 %13, ptr %7, align 8, !tbaa !4
  %14 = getelementptr inbounds nuw %"class.rocksdb::BlockBuilder", ptr %8, i32 0, i32 3
  %15 = load i64, ptr %14, align 8, !tbaa !46
  %16 = icmp ugt i64 %15, 0
  br i1 %16, label %17, label %22

17:                                               ; preds = %3
  %18 = getelementptr inbounds nuw %"class.rocksdb::BlockBuilder", ptr %8, i32 0, i32 3
  %19 = load i64, ptr %18, align 8, !tbaa !46
  %20 = load i64, ptr %7, align 8, !tbaa !4
  %21 = sub i64 %20, %19
  store i64 %21, ptr %7, align 8, !tbaa !4
  br label %22

22:                                               ; preds = %17, %3
  %23 = getelementptr inbounds nuw %"class.rocksdb::BlockBuilder", ptr %8, i32 0, i32 2
  %24 = load i8, ptr %23, align 1, !tbaa !45, !range !42, !noundef !43
  %25 = trunc i8 %24 to i1
  br i1 %25, label %26, label %32

26:                                               ; preds = %22
  %27 = getelementptr inbounds nuw %"class.rocksdb::BlockBuilder", ptr %8, i32 0, i32 8
  %28 = load i32, ptr %27, align 8, !tbaa !48
  %29 = getelementptr inbounds nuw %"class.rocksdb::BlockBuilder", ptr %8, i32 0, i32 0
  %30 = load i32, ptr %29, align 8, !tbaa !27
  %31 = icmp sge i32 %28, %30
  br i1 %31, label %32, label %35

32:                                               ; preds = %26, %22
  %33 = load ptr, ptr %6, align 8, !tbaa !10
  %34 = call noundef i64 @_ZNK7rocksdb5Slice4sizeEv(ptr noundef nonnull align 8 dereferenceable(16) %33)
  br label %39

35:                                               ; preds = %26
  %36 = load ptr, ptr %6, align 8, !tbaa !10
  %37 = call noundef i64 @_ZNK7rocksdb5Slice4sizeEv(ptr noundef nonnull align 8 dereferenceable(16) %36)
  %38 = udiv i64 %37, 2
  br label %39

39:                                               ; preds = %35, %32
  %40 = phi i64 [ %34, %32 ], [ %38, %35 ]
  %41 = load i64, ptr %7, align 8, !tbaa !4
  %42 = add i64 %41, %40
  store i64 %42, ptr %7, align 8, !tbaa !4
  %43 = getelementptr inbounds nuw %"class.rocksdb::BlockBuilder", ptr %8, i32 0, i32 8
  %44 = load i32, ptr %43, align 8, !tbaa !48
  %45 = getelementptr inbounds nuw %"class.rocksdb::BlockBuilder", ptr %8, i32 0, i32 0
  %46 = load i32, ptr %45, align 8, !tbaa !27
  %47 = icmp sge i32 %44, %46
  br i1 %47, label %48, label %51

48:                                               ; preds = %39
  %49 = load i64, ptr %7, align 8, !tbaa !4
  %50 = add i64 %49, 4
  store i64 %50, ptr %7, align 8, !tbaa !4
  br label %51

51:                                               ; preds = %48, %39
  %52 = load i64, ptr %7, align 8, !tbaa !4
  %53 = add i64 %52, 4
  store i64 %53, ptr %7, align 8, !tbaa !4
  %54 = load ptr, ptr %5, align 8, !tbaa !10
  %55 = call noundef i64 @_ZNK7rocksdb5Slice4sizeEv(ptr noundef nonnull align 8 dereferenceable(16) %54)
  %56 = call noundef i32 @_ZN7rocksdb12VarintLengthEm(i64 noundef %55)
  %57 = sext i32 %56 to i64
  %58 = load i64, ptr %7, align 8, !tbaa !4
  %59 = add i64 %58, %57
  store i64 %59, ptr %7, align 8, !tbaa !4
  %60 = getelementptr inbounds nuw %"class.rocksdb::BlockBuilder", ptr %8, i32 0, i32 2
  %61 = load i8, ptr %60, align 1, !tbaa !45, !range !42, !noundef !43
  %62 = trunc i8 %61 to i1
  br i1 %62, label %63, label %69

63:                                               ; preds = %51
  %64 = getelementptr inbounds nuw %"class.rocksdb::BlockBuilder", ptr %8, i32 0, i32 8
  %65 = load i32, ptr %64, align 8, !tbaa !48
  %66 = getelementptr inbounds nuw %"class.rocksdb::BlockBuilder", ptr %8, i32 0, i32 0
  %67 = load i32, ptr %66, align 8, !tbaa !27
  %68 = icmp sge i32 %65, %67
  br i1 %68, label %69, label %76

69:                                               ; preds = %63, %51
  %70 = load ptr, ptr %6, align 8, !tbaa !10
  %71 = call noundef i64 @_ZNK7rocksdb5Slice4sizeEv(ptr noundef nonnull align 8 dereferenceable(16) %70)
  %72 = call noundef i32 @_ZN7rocksdb12VarintLengthEm(i64 noundef %71)
  %73 = sext i32 %72 to i64
  %74 = load i64, ptr %7, align 8, !tbaa !4
  %75 = add i64 %74, %73
  store i64 %75, ptr %7, align 8, !tbaa !4
  br label %76

76:                                               ; preds = %69, %63
  %77 = load i64, ptr %7, align 8, !tbaa !4
  call void @llvm.lifetime.end.p0(i64 8, ptr %7) #15
  ret i64 %77
}