; Function Attrs: mustprogress nofree norecurse nosync nounwind willreturn memory(argmem: read) uwtable
define noundef i64 @_ZNK7rocksdb12BlockBuilder19EstimateSizeAfterKVERKNS_5SliceES3_(ptr noundef nonnull readonly align 8 captures(none) dereferenceable(176) %0, ptr noundef nonnull readonly align 8 captures(none) dereferenceable(16) %1, ptr noundef nonnull readonly align 8 captures(none) dereferenceable(16) %2) local_unnamed_addr #3 align 2 {
  %4 = getelementptr inbounds nuw i8, ptr %0, i64 80
  %5 = load i64, ptr %4, align 8, !tbaa !43
  %6 = getelementptr inbounds nuw i8, ptr %0, i64 128
  %7 = getelementptr inbounds nuw i8, ptr %0, i64 144
  %8 = load i8, ptr %7, align 8, !tbaa !42, !range !45, !noundef !46
  %9 = trunc nuw i8 %8 to i1
  %10 = load double, ptr %6, align 8
  %11 = fcmp ogt double %10, 0.000000e+00
  %12 = select i1 %9, i1 %11, i1 false
  br i1 %12, label %13, label %_ZNK7rocksdb12BlockBuilder19CurrentSizeEstimateEv.exit

13:                                               ; preds = %3
  %14 = getelementptr inbounds nuw i8, ptr %0, i64 136
  %15 = load double, ptr %14, align 8, !tbaa !41
  %16 = fptoui double %15 to i16
  %17 = or i16 %16, 1
  %18 = zext i16 %17 to i64
  %19 = add nuw nsw i64 %18, 2
  br label %_ZNK7rocksdb12BlockBuilder19CurrentSizeEstimateEv.exit

_ZNK7rocksdb12BlockBuilder19CurrentSizeEstimateEv.exit: ; preds = %3, %13
  %20 = phi i64 [ %19, %13 ], [ 0, %3 ]
  %21 = add i64 %20, %5
  %22 = getelementptr inbounds nuw i8, ptr %1, i64 8
  %23 = load i64, ptr %22, align 8, !tbaa !47
  %24 = add i64 %21, %23
  %25 = getelementptr inbounds nuw i8, ptr %0, i64 8
  %26 = load i64, ptr %25, align 8, !tbaa !29
  %27 = sub i64 %24, %26
  %28 = getelementptr inbounds nuw i8, ptr %0, i64 5
  %29 = load i8, ptr %28, align 1, !tbaa !28, !range !45, !noundef !46
  %30 = trunc nuw i8 %29 to i1
  %31 = getelementptr inbounds nuw i8, ptr %0, i64 88
  %32 = load i32, ptr %31, align 8, !tbaa !38
  %33 = load i32, ptr %0, align 8, !tbaa !4
  %.not14 = icmp slt i32 %32, %33
  %or.cond = select i1 %30, i1 %.not14, i1 false
  %34 = getelementptr inbounds nuw i8, ptr %2, i64 8
  %35 = load i64, ptr %34, align 8, !tbaa !47
  %36 = zext i1 %or.cond to i64
  %spec.select = lshr i64 %35, %36
  %37 = add i64 %27, %spec.select
  %.not15 = icmp slt i32 %32, %33
  %38 = add i64 %37, 4
  %spec.select17 = select i1 %.not15, i64 %37, i64 %38
  %39 = add i64 %spec.select17, 4
  %40 = icmp ugt i64 %23, 127
  br i1 %40, label %.lr.ph.i, label %_ZN7rocksdb12VarintLengthEm.exit

.lr.ph.i:                                         ; preds = %_ZNK7rocksdb12BlockBuilder19CurrentSizeEstimateEv.exit, %.lr.ph.i
  %.06.i = phi i32 [ %42, %.lr.ph.i ], [ 1, %_ZNK7rocksdb12BlockBuilder19CurrentSizeEstimateEv.exit ]
  %.045.i = phi i64 [ %41, %.lr.ph.i ], [ %23, %_ZNK7rocksdb12BlockBuilder19CurrentSizeEstimateEv.exit ]
  %41 = lshr i64 %.045.i, 7
  %42 = add nuw nsw i32 %.06.i, 1
  %43 = icmp ugt i64 %.045.i, 16383
  br i1 %43, label %.lr.ph.i, label %_ZN7rocksdb12VarintLengthEm.exit.loopexit, !llvm.loop !49

_ZN7rocksdb12VarintLengthEm.exit.loopexit:        ; preds = %.lr.ph.i
  %44 = zext nneg i32 %42 to i64
  br label %_ZN7rocksdb12VarintLengthEm.exit

_ZN7rocksdb12VarintLengthEm.exit:                 ; preds = %_ZN7rocksdb12VarintLengthEm.exit.loopexit, %_ZNK7rocksdb12BlockBuilder19CurrentSizeEstimateEv.exit
  %.0.lcssa.i = phi i64 [ 1, %_ZNK7rocksdb12BlockBuilder19CurrentSizeEstimateEv.exit ], [ %44, %_ZN7rocksdb12VarintLengthEm.exit.loopexit ]
  %45 = add i64 %39, %.0.lcssa.i
  %brmerge.not = select i1 %30, i1 %.not15, i1 false
  br i1 %brmerge.not, label %53, label %46

46:                                               ; preds = %_ZN7rocksdb12VarintLengthEm.exit
  %47 = icmp ugt i64 %35, 127
  br i1 %47, label %.lr.ph.i19, label %_ZN7rocksdb12VarintLengthEm.exit22

.lr.ph.i19:                                       ; preds = %46, %.lr.ph.i19
  %.06.i20 = phi i32 [ %49, %.lr.ph.i19 ], [ 1, %46 ]
  %.045.i21 = phi i64 [ %48, %.lr.ph.i19 ], [ %35, %46 ]
  %48 = lshr i64 %.045.i21, 7
  %49 = add nuw nsw i32 %.06.i20, 1
  %50 = icmp ugt i64 %.045.i21, 16383
  br i1 %50, label %.lr.ph.i19, label %_ZN7rocksdb12VarintLengthEm.exit22.loopexit, !llvm.loop !49

_ZN7rocksdb12VarintLengthEm.exit22.loopexit:      ; preds = %.lr.ph.i19
  %51 = zext nneg i32 %49 to i64
  br label %_ZN7rocksdb12VarintLengthEm.exit22

_ZN7rocksdb12VarintLengthEm.exit22:               ; preds = %_ZN7rocksdb12VarintLengthEm.exit22.loopexit, %46
  %.0.lcssa.i18 = phi i64 [ 1, %46 ], [ %51, %_ZN7rocksdb12VarintLengthEm.exit22.loopexit ]
  %52 = add i64 %45, %.0.lcssa.i18
  br label %53

53:                                               ; preds = %_ZN7rocksdb12VarintLengthEm.exit, %_ZN7rocksdb12VarintLengthEm.exit22
  %.2 = phi i64 [ %52, %_ZN7rocksdb12VarintLengthEm.exit22 ], [ %45, %_ZN7rocksdb12VarintLengthEm.exit ]
  ret i64 %.2
}